target datalayout = "e-m:e-p270:32:32-p271:32:32-p272:64:64-i64:64-i128:128-f80:128-n8:16:32:64-S128"
target triple = "x86_64-pc-linux-gnu"

%struct.lua_Debug = type { i32, ptr, ptr, ptr, ptr, i64, i32, i32, i32, i8, i8, i8, i8, i8, i32, i32, [60 x i8], ptr }

@.str.28 = private unnamed_addr constant [15 x i8] c"stack overflow\00", align 1
@.str.50 = private unnamed_addr constant [19 x i8] c"level out of range\00", align 1

; Function Attrs: nounwind uwtable
define internal void @checkstack(ptr noundef %0, ptr noundef %1, i32 noundef %2) #0 {
  %4 = alloca ptr, align 8
  %5 = alloca ptr, align 8
  %6 = alloca i32, align 4
  store ptr %0, ptr %4, align 8, !tbaa !4
  store ptr %1, ptr %5, align 8, !tbaa !4
  store i32 %2, ptr %6, align 4, !tbaa !11
  %7 = load ptr, ptr %4, align 8, !tbaa !4
  %8 = load ptr, ptr %5, align 8, !tbaa !4
  %9 = icmp ne ptr %7, %8
  br i1 %9, label %10, label %16

10:                                               ; preds = %3
  %11 = load ptr, ptr %5, align 8, !tbaa !4
  %12 = load i32, ptr %6, align 4, !tbaa !11
  %13 = call i32 @lua_checkstack(ptr noundef %11, i32 noundef %12)
  %14 = icmp ne i32 %13, 0
  %15 = xor i1 %14, true
  br label %16

16:                                               ; preds = %10, %3
  %17 = phi i1 [ false, %3 ], [ %15, %10 ]
  %18 = zext i1 %17 to i32
  %19 = icmp ne i32 %18, 0
  %20 = zext i1 %19 to i32
  %21 = sext i32 %20 to i64
  %22 = call i64 @llvm.expect.i64(i64 %21, i64 0)
  %23 = icmp ne i64 %22, 0
  br i1 %23, label %24, label %27

24:                                               ; preds = %16
  %25 = load ptr, ptr %4, align 8, !tbaa !4
  %26 = call i32 (ptr, ptr, ...) @luaL_error(ptr noundef %25, ptr noundef @.str.28)
  br label %27

27:                                               ; preds = %24, %16
  ret void
}

; Function Attrs: nounwind uwtable
define internal ptr @getthread(ptr noundef %0, ptr noundef %1) #0 {
  %3 = alloca ptr, align 8
  %4 = alloca ptr, align 8
  %5 = alloca ptr, align 8
  store ptr %0, ptr %4, align 8, !tbaa !4
  store ptr %1, ptr %5, align 8, !tbaa !35
  %6 = load ptr, ptr %4, align 8, !tbaa !4
  %7 = call i32 @lua_type(ptr noundef %6, i32 noundef 1)
  %8 = icmp eq i32 %7, 8
  br i1 %8, label %9, label %13

9:                                                ; preds = %2
  %10 = load ptr, ptr %5, align 8, !tbaa !35
  store i32 1, ptr %10, align 4, !tbaa !11
  %11 = load ptr, ptr %4, align 8, !tbaa !4
  %12 = call ptr @lua_tothread(ptr noundef %11, i32 noundef 1)
  store ptr %12, ptr %3, align 8
  br label %16

13:                                               ; preds = %2
  %14 = load ptr, ptr %5, align 8, !tbaa !35
  store i32 0, ptr %14, align 4, !tbaa !11
  %15 = load ptr, ptr %4, align 8, !tbaa !4
  store ptr %15, ptr %3, align 8
  br label %16

16:                                               ; preds = %13, %9
  %17 = load ptr, ptr %3, align 8
  ret ptr %17
}

; Function Attrs: nounwind uwtable
define internal i32 @db_getlocal(ptr noundef %0) #0 {
  %2 = alloca i32, align 4
  %3 = alloca ptr, align 8
  %4 = alloca i32, align 4
  %5 = alloca ptr, align 8
  %6 = alloca i32, align 4
  %7 = alloca i32, align 4
  %8 = alloca %struct.lua_Debug, align 8
  %9 = alloca ptr, align 8
  %10 = alloca i32, align 4
  store ptr %0, ptr %3, align 8, !tbaa !4
  call void @llvm.lifetime.start.p0(i64 4, ptr %4) #6
  call void @llvm.lifetime.start.p0(i64 8, ptr %5) #6
  %11 = load ptr, ptr %3, align 8, !tbaa !4
  %12 = call ptr @getthread(ptr noundef %11, ptr noundef %4)
  store ptr %12, ptr %5, align 8, !tbaa !4
  call void @llvm.lifetime.start.p0(i64 4, ptr %6) #6
  %13 = load ptr, ptr %3, align 8, !tbaa !4
  %14 = load i32, ptr %4, align 4, !tbaa !11
  %15 = add nsw i32 %14, 2
  %16 = call i64 @luaL_checkinteger(ptr noundef %13, i32 noundef %15)
  %17 = trunc i64 %16 to i32
  store i32 %17, ptr %6, align 4, !tbaa !11
  %18 = load ptr, ptr %3, align 8, !tbaa !4
  %19 = load i32, ptr %4, align 4, !tbaa !11
  %20 = add nsw i32 %19, 1
  %21 = call i32 @lua_type(ptr noundef %18, i32 noundef %20)
  %22 = icmp eq i32 %21, 6
  br i1 %22, label %23, label %32

23:                                               ; preds = %1
  %24 = load ptr, ptr %3, align 8, !tbaa !4
  %25 = load i32, ptr %4, align 4, !tbaa !11
  %26 = add nsw i32 %25, 1
  call void @lua_pushvalue(ptr noundef %24, i32 noundef %26)
  %27 = load ptr, ptr %3, align 8, !tbaa !4
  %28 = load ptr, ptr %3, align 8, !tbaa !4
  %29 = load i32, ptr %6, align 4, !tbaa !11
  %30 = call ptr @lua_getlocal(ptr noundef %28, ptr noundef null, i32 noundef %29)
  %31 = call ptr @lua_pushstring(ptr noundef %27, ptr noundef %30)
  store i32 1, ptr %2, align 4
  store i32 1, ptr %7, align 4
  br label %72

32:                                               ; preds = %1
  call void @llvm.lifetime.start.p0(i64 144, ptr %8) #6
  call void @llvm.lifetime.start.p0(i64 8, ptr %9) #6
  call void @llvm.lifetime.start.p0(i64 4, ptr %10) #6
  %33 = load ptr, ptr %3, align 8, !tbaa !4
  %34 = load i32, ptr %4, align 4, !tbaa !11
  %35 = add nsw i32 %34, 1
  %36 = call i64 @luaL_checkinteger(ptr noundef %33, i32 noundef %35)
  %37 = trunc i64 %36 to i32
  store i32 %37, ptr %10, align 4, !tbaa !11
  %38 = load ptr, ptr %5, align 8, !tbaa !4
  %39 = load i32, ptr %10, align 4, !tbaa !11
  %40 = call i32 @lua_getstack(ptr noundef %38, i32 noundef %39, ptr noundef %8)
  %41 = icmp ne i32 %40, 0
  %42 = xor i1 %41, true
  %43 = zext i1 %42 to i32
  %44 = icmp ne i32 %43, 0
  %45 = zext i1 %44 to i32
  %46 = sext i32 %45 to i64
  %47 = call i64 @llvm.expect.i64(i64 %46, i64 0)
  %48 = icmp ne i64 %47, 0
  br i1 %48, label %49, label %54

49:                                               ; preds = %32
  %50 = load ptr, ptr %3, align 8, !tbaa !4
  %51 = load i32, ptr %4, align 4, !tbaa !11
  %52 = add nsw i32 %51, 1
  %53 = call i32 @luaL_argerror(ptr noundef %50, i32 noundef %52, ptr noundef @.str.50)
  store i32 %53, ptr %2, align 4
  store i32 1, ptr %7, align 4
  br label %71

54:                                               ; preds = %32
  %55 = load ptr, ptr %3, align 8, !tbaa !4
  %56 = load ptr, ptr %5, align 8, !tbaa !4
  call void @checkstack(ptr noundef %55, ptr noundef %56, i32 noundef 1)
  %57 = load ptr, ptr %5, align 8, !tbaa !4
  %58 = load i32, ptr %6, align 4, !tbaa !11
  %59 = call ptr @lua_getlocal(ptr noundef %57, ptr noundef %8, i32 noundef %58)
  store ptr %59, ptr %9, align 8, !tbaa !14
  %60 = load ptr, ptr %9, align 8, !tbaa !14
  %61 = icmp ne ptr %60, null
  br i1 %61, label %62, label %69

62:                                               ; preds = %54
  %63 = load ptr, ptr %5, align 8, !tbaa !4
  %64 = load ptr, ptr %3, align 8, !tbaa !4
  call void @lua_xmove(ptr noundef %63, ptr noundef %64, i32 noundef 1)
  %65 = load ptr, ptr %3, align 8, !tbaa !4
  %66 = load ptr, ptr %9, align 8, !tbaa !14
  %67 = call ptr @lua_pushstring(ptr noundef %65, ptr noundef %66)
  %68 = load ptr, ptr %3, align 8, !tbaa !4
  call void @lua_rotate(ptr noundef %68, i32 noundef -2, i32 noundef 1)
  store i32 2, ptr %2, align 4
  store i32 1, ptr %7, align 4
  br label %71

69:                                               ; preds = %54
  %70 = load ptr, ptr %3, align 8, !tbaa !4
  call void @lua_pushnil(ptr noundef %70)
  store i32 1, ptr %2, align 4
  store i32 1, ptr %7, align 4
  br label %71

71:                                               ; preds = %69, %62, %49
  call void @llvm.lifetime.end.p0(i64 4, ptr %10) #6
  call void @llvm.lifetime.end.p0(i64 8, ptr %9) #6
  call void @llvm.lifetime.end.p0(i64 144, ptr %8) #6
  br label %72

72:                                               ; preds = %71, %23
  call void @llvm.lifetime.end.p0(i64 4, ptr %6) #6
  call void @llvm.lifetime.end.p0(i64 8, ptr %5) #6
  call void @llvm.lifetime.end.p0(i64 4, ptr %4) #6
  %73 = load i32, ptr %2, align 4
  ret i32 %73
}