; Function Attrs: nounwind uwtable
define internal i32 @db_getlocal(ptr noundef %0) #0 {
  %2 = alloca %struct.lua_Debug, align 8
  %3 = tail call i32 @lua_type(ptr noundef %0, i32 noundef 1) #8
  %4 = icmp eq i32 %3, 8
  br i1 %4, label %5, label %getthread.exit

5:                                                ; preds = %1
  %6 = tail call ptr @lua_tothread(ptr noundef %0, i32 noundef 1) #8
  br label %getthread.exit

getthread.exit:                                   ; preds = %1, %5
  %.028 = phi i32 [ 1, %5 ], [ 0, %1 ]
  %.0.i = phi ptr [ %6, %5 ], [ %0, %1 ]
  %7 = or disjoint i32 %.028, 2
  %8 = tail call i64 @luaL_checkinteger(ptr noundef %0, i32 noundef %7) #8
  %9 = trunc i64 %8 to i32
  %10 = add nuw nsw i32 %.028, 1
  %11 = tail call i32 @lua_type(ptr noundef %0, i32 noundef %10) #8
  %12 = icmp eq i32 %11, 6
  br i1 %12, label %13, label %16

13:                                               ; preds = %getthread.exit
  tail call void @lua_pushvalue(ptr noundef %0, i32 noundef %10) #8
  %14 = tail call ptr @lua_getlocal(ptr noundef %0, ptr noundef null, i32 noundef %9) #8
  %15 = tail call ptr @lua_pushstring(ptr noundef %0, ptr noundef %14) #8
  br label %32

16:                                               ; preds = %getthread.exit
  call void @llvm.lifetime.start.p0(i64 144, ptr nonnull %2) #8
  %17 = tail call i64 @luaL_checkinteger(ptr noundef %0, i32 noundef %10) #8
  %18 = trunc i64 %17 to i32
  %19 = call i32 @lua_getstack(ptr noundef %.0.i, i32 noundef %18, ptr noundef nonnull %2) #8
  %.not = icmp eq i32 %19, 0
  br i1 %.not, label %20, label %22, !prof !9

20:                                               ; preds = %16
  %21 = call i32 @luaL_argerror(ptr noundef %0, i32 noundef %10, ptr noundef nonnull @.str.50) #8
  br label %31

22:                                               ; preds = %16
  %.not.i = icmp eq ptr %0, %.0.i
  br i1 %.not.i, label %checkstack.exit, label %23

23:                                               ; preds = %22
  %24 = call i32 @lua_checkstack(ptr noundef %.0.i, i32 noundef 1) #8
  %.not4.i = icmp eq i32 %24, 0
  br i1 %.not4.i, label %25, label %checkstack.exit, !prof !9

25:                                               ; preds = %23
  %26 = call i32 (ptr, ptr, ...) @luaL_error(ptr noundef %0, ptr noundef nonnull @.str.28) #8
  br label %checkstack.exit

checkstack.exit:                                  ; preds = %22, %23, %25
  %27 = call ptr @lua_getlocal(ptr noundef %.0.i, ptr noundef nonnull %2, i32 noundef %9) #8
  %.not23 = icmp eq ptr %27, null
  br i1 %.not23, label %30, label %28

28:                                               ; preds = %checkstack.exit
  call void @lua_xmove(ptr noundef %.0.i, ptr noundef %0, i32 noundef 1) #8
  %29 = call ptr @lua_pushstring(ptr noundef %0, ptr noundef nonnull %27) #8
  call void @lua_rotate(ptr noundef %0, i32 noundef -2, i32 noundef 1) #8
  br label %31

30:                                               ; preds = %checkstack.exit
  call void @lua_pushnil(ptr noundef %0) #8
  br label %31

31:                                               ; preds = %30, %28, %20
  %.1 = phi i32 [ %21, %20 ], [ 2, %28 ], [ 1, %30 ]
  call void @llvm.lifetime.end.p0(i64 144, ptr nonnull %2) #8
  br label %32

32:                                               ; preds = %31, %13
  %.0 = phi i32 [ 1, %13 ], [ %.1, %31 ]
  ret i32 %.0
}